target datalayout = "e-m:e-p270:32:32-p271:32:32-p272:64:64-i64:64-i128:128-f80:128-n8:16:32:64-S128"
target triple = "x86_64-pc-linux-gnu"

%"class.icu_77::UObject" = type { ptr }
%"class.icu_77::DateFormatSymbols" = type { %"class.icu_77::UObject", ptr, i32, ptr, i32, ptr, i32, ptr, i32, ptr, i32, ptr, i32, ptr, i32, ptr, i32, ptr, i32, ptr, i32, ptr, i32, ptr, i32, ptr, i32, ptr, i32, ptr, i32, ptr, i32, ptr, i32, ptr, i32, ptr, i32, %"class.icu_77::UnicodeString", ptr, i32, ptr, i32, ptr, i32, ptr, i32, ptr, i32, ptr, i32, ptr, i32, ptr, i32, ptr, i32, ptr, ptr, i32, i32, %"class.icu_77::Locale", %"class.icu_77::UnicodeString", [14 x [2 x i8]], ptr, i32, ptr, i32, ptr, i32, ptr, i32, ptr, i32, ptr, i32, ptr, ptr }
%"class.icu_77::Locale" = type <{ %"class.icu_77::UObject", [12 x i8], [6 x i8], [4 x i8], [2 x i8], i32, [4 x i8], ptr, [157 x i8], [3 x i8], ptr, i8, [7 x i8] }>
%"class.icu_77::UnicodeString" = type { %"class.icu_77::Replaceable", %"union.icu_77::UnicodeString::StackBufferOrFields" }
%"class.icu_77::Replaceable" = type { %"class.icu_77::UObject" }
%"union.icu_77::UnicodeString::StackBufferOrFields" = type { %struct.anon.0, [32 x i8] }
%struct.anon.0 = type { i16, i32, i32, ptr }

; Function Attrs: mustprogress nounwind uwtable
define noundef ptr @_ZNK6icu_7717DateFormatSymbols9getMonthsERiNS0_13DtContextTypeENS0_11DtWidthTypeE(ptr noundef nonnull align 8 dereferenceable(976) %0, ptr noundef nonnull align 4 dereferenceable(4) %1, i32 noundef %2, i32 noundef %3) #0 align 2 {
  %5 = alloca ptr, align 8
  %6 = alloca ptr, align 8
  %7 = alloca i32, align 4
  %8 = alloca i32, align 4
  %9 = alloca ptr, align 8
  store ptr %0, ptr %5, align 8, !tbaa !31
  store ptr %1, ptr %6, align 8, !tbaa !20
  store i32 %2, ptr %7, align 4, !tbaa !151
  store i32 %3, ptr %8, align 4, !tbaa !153
  %10 = load ptr, ptr %5, align 8
  call void @llvm.lifetime.start.p0(i64 8, ptr %9) #14
  store ptr null, ptr %9, align 8, !tbaa !50
  %11 = load i32, ptr %7, align 4, !tbaa !151
  switch i32 %11, label %54 [
    i32 0, label %12
    i32 1, label %33
    i32 2, label %54
  ]

12:                                               ; preds = %4
  %13 = load i32, ptr %8, align 4, !tbaa !153
  switch i32 %13, label %32 [
    i32 1, label %14
    i32 0, label %20
    i32 3, label %20
    i32 2, label %26
    i32 4, label %32
  ]

14:                                               ; preds = %12
  %15 = getelementptr inbounds nuw %"class.icu_77::DateFormatSymbols", ptr %10, i32 0, i32 8
  %16 = load i32, ptr %15, align 8, !tbaa !59
  %17 = load ptr, ptr %6, align 8, !tbaa !20
  store i32 %16, ptr %17, align 4, !tbaa !14
  %18 = getelementptr inbounds nuw %"class.icu_77::DateFormatSymbols", ptr %10, i32 0, i32 7
  %19 = load ptr, ptr %18, align 8, !tbaa !58
  store ptr %19, ptr %9, align 8, !tbaa !50
  br label %32

20:                                               ; preds = %12, %12
  %21 = getelementptr inbounds nuw %"class.icu_77::DateFormatSymbols", ptr %10, i32 0, i32 10
  %22 = load i32, ptr %21, align 8, !tbaa !61
  %23 = load ptr, ptr %6, align 8, !tbaa !20
  store i32 %22, ptr %23, align 4, !tbaa !14
  %24 = getelementptr inbounds nuw %"class.icu_77::DateFormatSymbols", ptr %10, i32 0, i32 9
  %25 = load ptr, ptr %24, align 8, !tbaa !60
  store ptr %25, ptr %9, align 8, !tbaa !50
  br label %32

26:                                               ; preds = %12
  %27 = getelementptr inbounds nuw %"class.icu_77::DateFormatSymbols", ptr %10, i32 0, i32 12
  %28 = load i32, ptr %27, align 8, !tbaa !63
  %29 = load ptr, ptr %6, align 8, !tbaa !20
  store i32 %28, ptr %29, align 4, !tbaa !14
  %30 = getelementptr inbounds nuw %"class.icu_77::DateFormatSymbols", ptr %10, i32 0, i32 11
  %31 = load ptr, ptr %30, align 8, !tbaa !62
  store ptr %31, ptr %9, align 8, !tbaa !50
  br label %32

32:                                               ; preds = %12, %12, %26, %20, %14
  br label %54

33:                                               ; preds = %4
  %34 = load i32, ptr %8, align 4, !tbaa !153
  switch i32 %34, label %53 [
    i32 1, label %35
    i32 0, label %41
    i32 3, label %41
    i32 2, label %47
    i32 4, label %53
  ]

35:                                               ; preds = %33
  %36 = getelementptr inbounds nuw %"class.icu_77::DateFormatSymbols", ptr %10, i32 0, i32 14
  %37 = load i32, ptr %36, align 8, !tbaa !65
  %38 = load ptr, ptr %6, align 8, !tbaa !20
  store i32 %37, ptr %38, align 4, !tbaa !14
  %39 = getelementptr inbounds nuw %"class.icu_77::DateFormatSymbols", ptr %10, i32 0, i32 13
  %40 = load ptr, ptr %39, align 8, !tbaa !64
  store ptr %40, ptr %9, align 8, !tbaa !50
  br label %53

41:                                               ; preds = %33, %33
  %42 = getelementptr inbounds nuw %"class.icu_77::DateFormatSymbols", ptr %10, i32 0, i32 16
  %43 = load i32, ptr %42, align 8, !tbaa !67
  %44 = load ptr, ptr %6, align 8, !tbaa !20
  store i32 %43, ptr %44, align 4, !tbaa !14
  %45 = getelementptr inbounds nuw %"class.icu_77::DateFormatSymbols", ptr %10, i32 0, i32 15
  %46 = load ptr, ptr %45, align 8, !tbaa !66
  store ptr %46, ptr %9, align 8, !tbaa !50
  br label %53

47:                                               ; preds = %33
  %48 = getelementptr inbounds nuw %"class.icu_77::DateFormatSymbols", ptr %10, i32 0, i32 18
  %49 = load i32, ptr %48, align 8, !tbaa !69
  %50 = load ptr, ptr %6, align 8, !tbaa !20
  store i32 %49, ptr %50, align 4, !tbaa !14
  %51 = getelementptr inbounds nuw %"class.icu_77::DateFormatSymbols", ptr %10, i32 0, i32 17
  %52 = load ptr, ptr %51, align 8, !tbaa !68
  store ptr %52, ptr %9, align 8, !tbaa !50
  br label %53

53:                                               ; preds = %33, %33, %47, %41, %35
  br label %54

54:                                               ; preds = %4, %4, %53, %32
  %55 = load ptr, ptr %9, align 8, !tbaa !50
  call void @llvm.lifetime.end.p0(i64 8, ptr %9) #14
  ret ptr %55
}